target datalayout = "e-m:e-p270:32:32-p271:32:32-p272:64:64-i64:64-i128:128-f80:128-n8:16:32:64-S128"
target triple = "x86_64-pc-linux-gnu"

%struct.PlatformTarget = type { ptr, i32, ptr, ptr, i32, i32, i32, i32, i32, i32, i32, [7 x %struct.AlignData], [7 x %struct.AlignData], [7 x %struct.AlignData], i32, i16, %union.anon.88, i8, i8, i8, i8, i8, i8, i8, i8, i8, i8, %struct.AlignData, i32, i32, i32, i32, i32, i32, i32, i32, i32, i32, i32, i32, i32, i32, i32, i32, ptr }
%union.anon.88 = type { %struct.anon.90 }
%struct.anon.90 = type { %struct.X86Features, i32, i32 }
%struct.X86Features = type { [2 x i64], ptr }
%struct.AlignData = type { i32, i32 }
%struct.Type_ = type { i32, ptr, ptr, ptr, %union.anon.85, ptr, ptr, %union.anon.87 }
%union.anon.85 = type { ptr }
%union.anon.87 = type { %struct.TypeFunction }
%struct.TypeFunction = type { ptr, ptr, ptr }
%struct.Decl_ = type { ptr, ptr, %union.SourceSpan, i64, %union.anon.5, i32, %union.anon.6, i64, ptr, ptr, ptr, %union.anon.7 }
%union.SourceSpan = type { i64 }
%union.anon.5 = type { ptr }
%union.anon.6 = type { i16 }
%union.anon.7 = type { %struct.FuncDecl }
%struct.FuncDecl = type { i32, [4 x i8], %struct.Signature_, i32, i32, %union.anon.14 }
%struct.Signature_ = type <{ %struct.CalleeAttributes, i16, i8, i32, i32, [4 x i8], ptr }>
%struct.CalleeAttributes = type { i8 }
%union.anon.14 = type { %struct.anon.15 }
%struct.anon.15 = type { i16, %union.anon.16 }
%union.anon.16 = type { ptr }
%struct.anon.8 = type { ptr, ptr, %union.anon.9 }
%union.anon.9 = type { %struct.BitStructDecl }
%struct.BitStructDecl = type { ptr, ptr, i8 }
%struct.StructDecl = type { i32, ptr, i32, i16 }
%struct.VHeader_ = type { i32, i32, [0 x i8] }

@platform_target = external global %struct.PlatformTarget, align 8
@.str = private unnamed_addr constant [36 x i8] c"FATAL ERROR %s -> in %s @ in %s:%d \00", align 1
@.str.1 = private unnamed_addr constant [22 x i8] c"Should be unreachable\00", align 1
@.str.2 = private unnamed_addr constant [114 x i8] c"generated/home/dtcxzyw/WorkSpace/Projects/compilers/llvm-opt-benchmark/bench/c3c/c3c/src/compiler/abi/c_abi_x64.c\00", align 1
@__func__.x64_merge = private unnamed_addr constant [10 x i8] c"x64_merge\00", align 1

; Function Attrs: nounwind uwtable
define internal i32 @x64_merge(i32 noundef %0, i32 noundef %1) #0 {
  %3 = alloca i32, align 4
  %4 = alloca i32, align 4
  %5 = alloca i32, align 4
  %6 = alloca i32, align 4
  store i32 %0, ptr %4, align 4
  store i32 %1, ptr %5, align 4
  %7 = load i32, ptr %4, align 4
  %8 = load i32, ptr %5, align 4
  %9 = icmp eq i32 %7, %8
  br i1 %9, label %10, label %12

10:                                               ; preds = %2
  %11 = load i32, ptr %4, align 4
  store i32 %11, ptr %3, align 4
  br label %29

12:                                               ; preds = %2
  %13 = load i32, ptr %4, align 4
  %14 = load i32, ptr %5, align 4
  %15 = icmp ugt i32 %13, %14
  br i1 %15, label %16, label %20

16:                                               ; preds = %12
  %17 = load i32, ptr %5, align 4
  store i32 %17, ptr %6, align 4
  %18 = load i32, ptr %4, align 4
  store i32 %18, ptr %5, align 4
  %19 = load i32, ptr %6, align 4
  store i32 %19, ptr %4, align 4
  br label %20

20:                                               ; preds = %16, %12
  %21 = load i32, ptr %4, align 4
  switch i32 %21, label %27 [
    i32 0, label %22
    i32 1, label %24
    i32 2, label %25
    i32 4, label %26
    i32 3, label %26
  ]

22:                                               ; preds = %20
  %23 = load i32, ptr %5, align 4
  store i32 %23, ptr %3, align 4
  br label %29

24:                                               ; preds = %20
  store i32 1, ptr %3, align 4
  br label %29

25:                                               ; preds = %20
  store i32 2, ptr %3, align 4
  br label %29

26:                                               ; preds = %20, %20
  store i32 3, ptr %3, align 4
  br label %29

27:                                               ; preds = %20
  br label %28

28:                                               ; preds = %27
  call void (ptr, ...) @error_exit(ptr noundef @.str, ptr noundef @.str.1, ptr noundef @__func__.x64_merge, ptr noundef @.str.2, i32 noundef 203) #5
  unreachable

29:                                               ; preds = %26, %25, %24, %22, %10
  %30 = load i32, ptr %3, align 4
  ret i32 %30
}

; Function Attrs: nounwind uwtable
define dso_local void @x64_classify_post_merge(i64 noundef %0, ptr noundef %1, ptr noundef %2) #0 {
  %4 = alloca i64, align 8
  %5 = alloca ptr, align 8
  %6 = alloca ptr, align 8
  store i64 %0, ptr %4, align 8
  store ptr %1, ptr %5, align 8
  store ptr %2, ptr %6, align 8
  %7 = load ptr, ptr %6, align 8
  %8 = load i32, ptr %7, align 4
  %9 = icmp eq i32 %8, 1
  br i1 %9, label %10, label %11

10:                                               ; preds = %3
  br label %38

11:                                               ; preds = %3
  %12 = load i64, ptr %4, align 8
  %13 = icmp ugt i64 %12, 16
  br i1 %13, label %14, label %23

14:                                               ; preds = %11
  %15 = load ptr, ptr %5, align 8
  %16 = load i32, ptr %15, align 4
  %17 = icmp ne i32 %16, 3
  br i1 %17, label %22, label %18

18:                                               ; preds = %14
  %19 = load ptr, ptr %6, align 8
  %20 = load i32, ptr %19, align 4
  %21 = icmp ne i32 %20, 4
  br i1 %21, label %22, label %23

22:                                               ; preds = %18, %14
  br label %38

23:                                               ; preds = %18, %11
  %24 = load ptr, ptr %6, align 8
  %25 = load i32, ptr %24, align 4
  %26 = icmp eq i32 %25, 4
  br i1 %26, label %27, label %37

27:                                               ; preds = %23
  %28 = load ptr, ptr %5, align 8
  %29 = load i32, ptr %28, align 4
  %30 = icmp ne i32 %29, 3
  br i1 %30, label %31, label %37

31:                                               ; preds = %27
  %32 = load ptr, ptr %5, align 8
  %33 = load i32, ptr %32, align 4
  %34 = icmp ne i32 %33, 4
  br i1 %34, label %35, label %37

35:                                               ; preds = %31
  %36 = load ptr, ptr %6, align 8
  store i32 3, ptr %36, align 4
  br label %37

37:                                               ; preds = %35, %31, %27, %23
  br label %40

38:                                               ; preds = %22, %10
  %39 = load ptr, ptr %5, align 8
  store i32 1, ptr %39, align 4
  br label %40

40:                                               ; preds = %38, %37
  ret void
}

; Function Attrs: nounwind uwtable
define dso_local void @x64_classify_struct_union(ptr noundef %0, i64 noundef %1, ptr noundef %2, ptr noundef %3, ptr noundef %4, i32 noundef %5) #0 {
  %7 = alloca i32, align 4
  %8 = alloca ptr, align 8
  %9 = alloca ptr, align 8
  %10 = alloca ptr, align 8
  %11 = alloca i64, align 8
  %12 = alloca ptr, align 8
  %13 = alloca ptr, align 8
  %14 = alloca ptr, align 8
  %15 = alloca i32, align 4
  %16 = alloca i64, align 8
  %17 = alloca i8, align 1
  %18 = alloca ptr, align 8
  %19 = alloca i32, align 4
  %20 = alloca i32, align 4
  %21 = alloca ptr, align 8
  %22 = alloca i64, align 8
  %23 = alloca i32, align 4
  %24 = alloca i32, align 4
  store ptr %0, ptr %10, align 8
  store i64 %1, ptr %11, align 8
  store ptr %2, ptr %12, align 8
  store ptr %3, ptr %13, align 8
  store ptr %4, ptr %14, align 8
  store i32 %5, ptr %15, align 4
  %25 = load ptr, ptr %10, align 8
  %26 = call i32 @type_size(ptr noundef %25)
  %27 = zext i32 %26 to i64
  store i64 %27, ptr %16, align 8
  %28 = load i64, ptr %16, align 8
  %29 = icmp ugt i64 %28, 64
  br i1 %29, label %30, label %31

30:                                               ; preds = %6
  br label %153

31:                                               ; preds = %6
  %32 = load ptr, ptr %10, align 8
  %33 = getelementptr inbounds %struct.Type_, ptr %32, i32 0, i32 7
  %34 = load ptr, ptr %33, align 8
  %35 = getelementptr inbounds %struct.Decl_, ptr %34, i32 0, i32 3
  %36 = load i64, ptr %35, align 8
  %37 = lshr i64 %36, 16
  %38 = and i64 %37, 1
  %39 = trunc i64 %38 to i1
  br i1 %39, label %40, label %41

40:                                               ; preds = %31
  br label %153

41:                                               ; preds = %31
  %42 = load ptr, ptr %12, align 8
  store i32 0, ptr %42, align 4
  %43 = load ptr, ptr %10, align 8
  %44 = getelementptr inbounds %struct.Type_, ptr %43, i32 0, i32 0
  %45 = load i32, ptr %44, align 8
  %46 = icmp eq i32 %45, 27
  %47 = zext i1 %46 to i8
  store i8 %47, ptr %17, align 1
  %48 = load ptr, ptr %10, align 8
  %49 = getelementptr inbounds %struct.Type_, ptr %48, i32 0, i32 7
  %50 = load ptr, ptr %49, align 8
  %51 = getelementptr inbounds %struct.Decl_, ptr %50, i32 0, i32 11
  %52 = getelementptr inbounds %struct.anon.8, ptr %51, i32 0, i32 2
  %53 = getelementptr inbounds %struct.StructDecl, ptr %52, i32 0, i32 1
  %54 = load ptr, ptr %53, align 8
  store ptr %54, ptr %18, align 8
  store i32 0, ptr %19, align 4
  %55 = load ptr, ptr %18, align 8
  store ptr %55, ptr %8, align 8
  %56 = load ptr, ptr %8, align 8
  %57 = icmp ne ptr %56, null
  br i1 %57, label %59, label %58

58:                                               ; preds = %41
  store i32 0, ptr %7, align 4
  br label %64

59:                                               ; preds = %41
  %60 = load ptr, ptr %8, align 8
  store ptr %60, ptr %9, align 8
  %61 = load ptr, ptr %9, align 8
  %62 = getelementptr inbounds %struct.VHeader_, ptr %61, i64 -1
  %63 = load i32, ptr %62, align 4
  store i32 %63, ptr %7, align 4
  br label %64

64:                                               ; preds = %59, %58
  %65 = load i32, ptr %7, align 4
  store i32 %65, ptr %20, align 4
  br label %66

66:                                               ; preds = %146, %64
  %67 = load i32, ptr %19, align 4
  %68 = load i32, ptr %20, align 4
  %69 = icmp ult i32 %67, %68
  br i1 %69, label %70, label %149

70:                                               ; preds = %66
  %71 = load ptr, ptr %18, align 8
  %72 = load i32, ptr %19, align 4
  %73 = zext i32 %72 to i64
  %74 = getelementptr inbounds ptr, ptr %71, i64 %73
  %75 = load ptr, ptr %74, align 8
  store ptr %75, ptr %21, align 8
  %76 = load i64, ptr %11, align 8
  %77 = load ptr, ptr %21, align 8
  %78 = getelementptr inbounds %struct.Decl_, ptr %77, i32 0, i32 7
  %79 = load i64, ptr %78, align 8
  %80 = and i64 %79, 4294967295
  %81 = trunc i64 %80 to i32
  %82 = zext i32 %81 to i64
  %83 = add i64 %76, %82
  store i64 %83, ptr %22, align 8
  %84 = load i64, ptr %16, align 8
  %85 = icmp ugt i64 %84, 16
  br i1 %85, label %86, label %107

86:                                               ; preds = %70
  %87 = load i8, ptr %17, align 1
  %88 = trunc i8 %87 to i1
  br i1 %88, label %97, label %89

89:                                               ; preds = %86
  %90 = load i64, ptr %16, align 8
  %91 = load ptr, ptr %21, align 8
  %92 = getelementptr inbounds %struct.Decl_, ptr %91, i32 0, i32 10
  %93 = load ptr, ptr %92, align 8
  %94 = call i32 @type_size(ptr noundef %93)
  %95 = zext i32 %94 to i64
  %96 = icmp ne i64 %90, %95
  br i1 %96, label %102, label %97

97:                                               ; preds = %89, %86
  %98 = load i64, ptr %16, align 8
  %99 = load i32, ptr getelementptr inbounds (%struct.anon.90, ptr getelementptr inbounds (%struct.PlatformTarget, ptr @platform_target, i32 0, i32 16), i32 0, i32 2), align 4
  %100 = sext i32 %99 to i64
  %101 = icmp ugt i64 %98, %100
  br i1 %101, label %102, label %107

102:                                              ; preds = %97, %89
  %103 = load ptr, ptr %13, align 8
  store i32 1, ptr %103, align 4
  %104 = load i64, ptr %16, align 8
  %105 = load ptr, ptr %13, align 8
  %106 = load ptr, ptr %14, align 8
  call void @x64_classify_post_merge(i64 noundef %104, ptr noundef %105, ptr noundef %106)
  br label %153

107:                                              ; preds = %97, %70
  %108 = load i64, ptr %22, align 8
  %109 = load ptr, ptr %21, align 8
  %110 = getelementptr inbounds %struct.Decl_, ptr %109, i32 0, i32 10
  %111 = load ptr, ptr %110, align 8
  %112 = call i32 @type_abi_alignment(ptr noundef %111)
  %113 = zext i32 %112 to i64
  %114 = urem i64 %108, %113
  %115 = icmp ne i64 %114, 0
  br i1 %115, label %116, label %121

116:                                              ; preds = %107
  %117 = load ptr, ptr %13, align 8
  store i32 1, ptr %117, align 4
  %118 = load i64, ptr %16, align 8
  %119 = load ptr, ptr %13, align 8
  %120 = load ptr, ptr %14, align 8
  call void @x64_classify_post_merge(i64 noundef %118, ptr noundef %119, ptr noundef %120)
  br label %153

121:                                              ; preds = %107
  %122 = load ptr, ptr %21, align 8
  %123 = getelementptr inbounds %struct.Decl_, ptr %122, i32 0, i32 10
  %124 = load ptr, ptr %123, align 8
  %125 = load i64, ptr %22, align 8
  %126 = load i32, ptr %15, align 4
  call void @x64_classify(ptr noundef %124, i64 noundef %125, ptr noundef %23, ptr noundef %24, i32 noundef %126)
  %127 = load ptr, ptr %13, align 8
  %128 = load i32, ptr %127, align 4
  %129 = load i32, ptr %23, align 4
  %130 = call i32 @x64_merge(i32 noundef %128, i32 noundef %129)
  %131 = load ptr, ptr %13, align 8
  store i32 %130, ptr %131, align 4
  %132 = load ptr, ptr %14, align 8
  %133 = load i32, ptr %132, align 4
  %134 = load i32, ptr %24, align 4
  %135 = call i32 @x64_merge(i32 noundef %133, i32 noundef %134)
  %136 = load ptr, ptr %14, align 8
  store i32 %135, ptr %136, align 4
  %137 = load ptr, ptr %13, align 8
  %138 = load i32, ptr %137, align 4
  %139 = icmp eq i32 %138, 1
  br i1 %139, label %144, label %140

140:                                              ; preds = %121
  %141 = load ptr, ptr %14, align 8
  %142 = load i32, ptr %141, align 4
  %143 = icmp eq i32 %142, 1
  br i1 %143, label %144, label %145

144:                                              ; preds = %140, %121
  br label %149

145:                                              ; preds = %140
  br label %146

146:                                              ; preds = %145
  %147 = load i32, ptr %19, align 4
  %148 = add i32 %147, 1
  store i32 %148, ptr %19, align 4
  br label %66, !llvm.loop !9

149:                                              ; preds = %144, %66
  %150 = load i64, ptr %16, align 8
  %151 = load ptr, ptr %13, align 8
  %152 = load ptr, ptr %14, align 8
  call void @x64_classify_post_merge(i64 noundef %150, ptr noundef %151, ptr noundef %152)
  br label %153

153:                                              ; preds = %149, %116, %102, %40, %30
  ret void
}