; Function Attrs: nounwind uwtable
define dso_local void @x64_classify_struct_union(ptr noundef %0, i64 noundef %1, ptr nocapture noundef writeonly %2, ptr nocapture noundef %3, ptr nocapture noundef %4, i32 noundef %5) local_unnamed_addr #1 {
  %7 = alloca i32, align 4
  %8 = alloca i32, align 4
  %9 = tail call i32 @type_size(ptr noundef %0) #7
  %10 = zext i32 %9 to i64
  %11 = icmp ugt i32 %9, 64
  br i1 %11, label %x64_classify_post_merge.exit, label %12

12:                                               ; preds = %6
  %13 = getelementptr inbounds i8, ptr %0, i64 56
  %14 = load ptr, ptr %13, align 8
  %15 = getelementptr inbounds i8, ptr %14, i64 24
  %16 = load i64, ptr %15, align 8
  %17 = and i64 %16, 65536
  %.not = icmp eq i64 %17, 0
  br i1 %.not, label %18, label %x64_classify_post_merge.exit

18:                                               ; preds = %12
  store i32 0, ptr %2, align 4
  %19 = load i32, ptr %0, align 8
  %20 = icmp eq i32 %19, 27
  %21 = load ptr, ptr %13, align 8
  %22 = getelementptr inbounds i8, ptr %21, i64 104
  %23 = load ptr, ptr %22, align 8
  %.not47 = icmp eq ptr %23, null
  br i1 %.not47, label %.thread-pre-split_crit_edge, label %24

24:                                               ; preds = %18
  %25 = getelementptr inbounds i8, ptr %23, i64 -8
  %26 = load i32, ptr %25, align 4
  %.not75 = icmp eq i32 %26, 0
  br i1 %.not75, label %.thread-pre-split_crit_edge, label %.lr.ph

.thread-pre-split_crit_edge:                      ; preds = %18, %24
  %.pr.pre = load i32, ptr %4, align 4
  br label %.loopexit

.lr.ph:                                           ; preds = %24
  %27 = icmp ult i32 %9, 17
  %wide.trip.count = zext i32 %26 to i64
  br label %29

28:                                               ; preds = %x64_merge.exit63
  %indvars.iv.next = add nuw nsw i64 %indvars.iv, 1
  %exitcond.not = icmp eq i64 %indvars.iv.next, %wide.trip.count
  br i1 %exitcond.not, label %.loopexit.thread, label %29, !llvm.loop !9

29:                                               ; preds = %.lr.ph, %28
  %indvars.iv = phi i64 [ 0, %.lr.ph ], [ %indvars.iv.next, %28 ]
  %30 = getelementptr inbounds ptr, ptr %23, i64 %indvars.iv
  %31 = load ptr, ptr %30, align 8
  %32 = getelementptr inbounds i8, ptr %31, i64 48
  %33 = load i64, ptr %32, align 8
  %34 = and i64 %33, 4294967295
  %35 = add i64 %34, %1
  br i1 %27, label %46, label %36

36:                                               ; preds = %29
  br i1 %20, label %44, label %37

37:                                               ; preds = %36
  %38 = getelementptr inbounds i8, ptr %31, i64 72
  %39 = load ptr, ptr %38, align 8
  %40 = tail call i32 @type_size(ptr noundef %39) #7
  %.not48 = icmp ne i32 %9, %40
  %41 = load i32, ptr getelementptr inbounds (%struct.PlatformTarget, ptr @platform_target, i64 0, i32 16, i32 0, i32 2), align 4
  %42 = sext i32 %41 to i64
  %43 = icmp ugt i64 %10, %42
  %or.cond = select i1 %.not48, i1 true, i1 %43
  br i1 %or.cond, label %45, label %46

44:                                               ; preds = %36
  %.old = load i32, ptr getelementptr inbounds (%struct.PlatformTarget, ptr @platform_target, i64 0, i32 16, i32 0, i32 2), align 4
  %.old50 = sext i32 %.old to i64
  %.old51 = icmp ugt i64 %10, %.old50
  br i1 %.old51, label %45, label %46

45:                                               ; preds = %44, %37
  store i32 1, ptr %3, align 4
  br label %x64_classify_post_merge.exit

46:                                               ; preds = %37, %44, %29
  %47 = getelementptr inbounds i8, ptr %31, i64 72
  %48 = load ptr, ptr %47, align 8
  %49 = tail call i32 @type_abi_alignment(ptr noundef %48) #7
  %50 = zext i32 %49 to i64
  %51 = urem i64 %35, %50
  %.not49 = icmp eq i64 %51, 0
  br i1 %.not49, label %55, label %52

52:                                               ; preds = %46
  store i32 1, ptr %3, align 4
  %53 = load i32, ptr %4, align 4
  %54 = icmp eq i32 %53, 4
  %or.cond84 = and i1 %27, %54
  br i1 %or.cond84, label %.thread.i54, label %x64_classify_post_merge.exit

.thread.i54:                                      ; preds = %52
  store i32 3, ptr %4, align 4
  br label %x64_classify_post_merge.exit

55:                                               ; preds = %46
  %56 = load ptr, ptr %47, align 8
  call fastcc void @x64_classify(ptr noundef %56, i64 noundef %35, ptr noundef nonnull %7, ptr noundef nonnull %8, i32 noundef %5)
  %57 = load i32, ptr %3, align 4
  %58 = load i32, ptr %7, align 4
  %59 = icmp eq i32 %57, %58
  br i1 %59, label %x64_merge.exit, label %60

60:                                               ; preds = %55
  %spec.select.i = tail call i32 @llvm.umin.i32(i32 %57, i32 %58)
  %spec.select15.i = tail call i32 @llvm.umax.i32(i32 %57, i32 %58)
  switch i32 %spec.select.i, label %64 [
    i32 0, label %x64_merge.exit
    i32 1, label %61
    i32 2, label %62
    i32 4, label %63
    i32 3, label %63
  ]

61:                                               ; preds = %60
  br label %x64_merge.exit

62:                                               ; preds = %60
  br label %x64_merge.exit

63:                                               ; preds = %60, %60
  br label %x64_merge.exit

64:                                               ; preds = %60
  tail call void (ptr, ...) @error_exit(ptr noundef nonnull @.str, ptr noundef nonnull @.str.1, ptr noundef nonnull @__func__.x64_merge, ptr noundef nonnull @.str.2, i32 noundef 203) #8
  unreachable

x64_merge.exit:                                   ; preds = %55, %60, %61, %62, %63
  %.0.i = phi i32 [ 3, %63 ], [ %spec.select.i, %62 ], [ %spec.select.i, %61 ], [ %57, %55 ], [ %spec.select15.i, %60 ]
  store i32 %.0.i, ptr %3, align 4
  %65 = load i32, ptr %4, align 4
  %66 = load i32, ptr %8, align 4
  %67 = icmp eq i32 %65, %66
  br i1 %67, label %x64_merge.exit63, label %68

68:                                               ; preds = %x64_merge.exit
  %spec.select.i60 = tail call i32 @llvm.umin.i32(i32 %65, i32 %66)
  %spec.select15.i61 = tail call i32 @llvm.umax.i32(i32 %65, i32 %66)
  switch i32 %spec.select.i60, label %71 [
    i32 0, label %x64_merge.exit63
    i32 1, label %.thread
    i32 2, label %69
    i32 4, label %70
    i32 3, label %70
  ]

.thread:                                          ; preds = %68
  store i32 1, ptr %4, align 4
  br label %86

69:                                               ; preds = %68
  br label %x64_merge.exit63

70:                                               ; preds = %68, %68
  br label %x64_merge.exit63

71:                                               ; preds = %68
  tail call void (ptr, ...) @error_exit(ptr noundef nonnull @.str, ptr noundef nonnull @.str.1, ptr noundef nonnull @__func__.x64_merge, ptr noundef nonnull @.str.2, i32 noundef 203) #8
  unreachable

x64_merge.exit63:                                 ; preds = %x64_merge.exit, %68, %69, %70
  %.0.i62 = phi i32 [ 3, %70 ], [ 2, %69 ], [ %65, %x64_merge.exit ], [ %spec.select15.i61, %68 ]
  store i32 %.0.i62, ptr %4, align 4
  %72 = load i32, ptr %3, align 4
  %73 = icmp eq i32 %72, 1
  %74 = icmp eq i32 %.0.i62, 1
  %or.cond53 = or i1 %74, %73
  br i1 %or.cond53, label %.loopexit, label %28

.loopexit:                                        ; preds = %x64_merge.exit63, %.thread-pre-split_crit_edge
  %75 = phi i32 [ %.pr.pre, %.thread-pre-split_crit_edge ], [ %.0.i62, %x64_merge.exit63 ]
  %76 = icmp eq i32 %75, 1
  br i1 %76, label %86, label %.loopexit.thread

.loopexit.thread:                                 ; preds = %28, %.loopexit
  %77 = phi i32 [ %75, %.loopexit ], [ %.0.i62, %28 ]
  %78 = icmp ugt i32 %9, 16
  br i1 %78, label %79, label %81

79:                                               ; preds = %.loopexit.thread
  %80 = load i32, ptr %3, align 4
  %.not.i66 = icmp eq i32 %80, 3
  %.not9.i67 = icmp eq i32 %77, 4
  %or.cond.i68 = and i1 %.not9.i67, %.not.i66
  br i1 %or.cond.i68, label %x64_classify_post_merge.exit, label %86

81:                                               ; preds = %.loopexit.thread
  %82 = icmp eq i32 %77, 4
  br i1 %82, label %.thread.i64, label %x64_classify_post_merge.exit

.thread.i64:                                      ; preds = %81
  %.pre.i65 = load i32, ptr %3, align 4
  %83 = add i32 %.pre.i65, -3
  %84 = icmp ult i32 %83, 2
  br i1 %84, label %x64_classify_post_merge.exit, label %85

85:                                               ; preds = %.thread.i64
  store i32 3, ptr %4, align 4
  br label %x64_classify_post_merge.exit

86:                                               ; preds = %.thread, %79, %.loopexit
  store i32 1, ptr %3, align 4
  br label %x64_classify_post_merge.exit

x64_classify_post_merge.exit:                     ; preds = %52, %86, %85, %.thread.i64, %81, %79, %.thread.i54, %45, %12, %6
  ret void
}